target datalayout = "e-m:e-p270:32:32-p271:32:32-p272:64:64-i64:64-i128:128-f80:128-n8:16:32:64-S128"
target triple = "x86_64-pc-linux-gnu"

%struct.PJ_XYZ = type { double, double, double }
%struct.PJ_LPZ = type { double, double, double }
%struct.PJ_XY = type { double, double }
%struct.PJ_LP = type { double, double }
%union.PJ_COORD = type { [4 x double] }

; Function Attrs: mustprogress uwtable
define internal { double, double } @_ZL12cart_reverse5PJ_XYP8PJconsts(double %0, double %1, ptr noundef %2) #0 {
  %4 = alloca %struct.PJ_LP, align 8
  %5 = alloca %struct.PJ_XY, align 8
  %6 = alloca ptr, align 8
  %7 = alloca %union.PJ_COORD, align 8
  %8 = alloca %struct.PJ_LPZ, align 8
  %9 = alloca %struct.PJ_XYZ, align 8
  %10 = getelementptr inbounds nuw { double, double }, ptr %5, i32 0, i32 0
  store double %0, ptr %10, align 8
  %11 = getelementptr inbounds nuw { double, double }, ptr %5, i32 0, i32 1
  store double %1, ptr %11, align 8
  store ptr %2, ptr %6, align 8, !tbaa !3
  call void @llvm.lifetime.start.p0(i64 32, ptr %7) #7
  call void @llvm.memcpy.p0.p0.i64(ptr align 8 %7, ptr align 8 %5, i64 16, i1 false), !tbaa.struct !60
  %12 = getelementptr inbounds nuw %struct.PJ_XYZ, ptr %7, i32 0, i32 2
  store double 0.000000e+00, ptr %12, align 8, !tbaa !61
  call void @llvm.lifetime.start.p0(i64 24, ptr %8) #7
  call void @llvm.memcpy.p0.p0.i64(ptr align 8 %9, ptr align 8 %7, i64 24, i1 false), !tbaa.struct !62
  %13 = load ptr, ptr %6, align 8, !tbaa !3
  call void @_ZL8geodetic6PJ_XYZP8PJconsts(ptr dead_on_unwind writable sret(%struct.PJ_LPZ) align 8 %8, ptr noundef byval(%struct.PJ_XYZ) align 8 %9, ptr noundef %13)
  call void @llvm.memcpy.p0.p0.i64(ptr align 8 %7, ptr align 8 %8, i64 24, i1 false), !tbaa.struct !62
  call void @llvm.memcpy.p0.p0.i64(ptr align 8 %4, ptr align 8 %7, i64 16, i1 false), !tbaa.struct !60
  call void @llvm.lifetime.end.p0(i64 24, ptr %8) #7
  call void @llvm.lifetime.end.p0(i64 32, ptr %7) #7
  %14 = load { double, double }, ptr %4, align 8
  ret { double, double } %14
}