; Function Attrs: mustprogress nofree nounwind willreturn memory(write, argmem: readwrite) uwtable
define internal { double, double } @_ZL12cart_reverse5PJ_XYP8PJconsts(double %0, double %1, ptr noundef readonly captures(none) %2) #3 {
  %4 = alloca %struct.PJ_LPZ, align 8
  %5 = alloca %struct.PJ_XYZ, align 8
  call void @llvm.lifetime.start.p0(i64 24, ptr nonnull %4) #8
  store double %0, ptr %5, align 8, !tbaa !61
  %.sroa.0.sroa.6.0..sroa_idx = getelementptr inbounds nuw i8, ptr %5, i64 8
  store double %1, ptr %.sroa.0.sroa.6.0..sroa_idx, align 8, !tbaa !61
  %.sroa.6.0..sroa_idx = getelementptr inbounds nuw i8, ptr %5, i64 16
  store double 0.000000e+00, ptr %.sroa.6.0..sroa_idx, align 8, !tbaa !61
  call void @_ZL8geodetic6PJ_XYZP8PJconsts(ptr dead_on_unwind nonnull writable sret(%struct.PJ_LPZ) align 8 %4, ptr noundef nonnull byval(%struct.PJ_XYZ) align 8 %5, ptr noundef %2)
  %.sroa.0.sroa.0.0.copyload4 = load double, ptr %4, align 8, !tbaa !61
  %.sroa.0.sroa.6.0..sroa_idx6 = getelementptr inbounds nuw i8, ptr %4, i64 8
  %.sroa.0.sroa.6.0.copyload7 = load double, ptr %.sroa.0.sroa.6.0..sroa_idx6, align 8, !tbaa !61
  call void @llvm.lifetime.end.p0(i64 24, ptr nonnull %4) #8
  %.fca.0.insert = insertvalue { double, double } poison, double %.sroa.0.sroa.0.0.copyload4, 0
  %.fca.1.insert = insertvalue { double, double } %.fca.0.insert, double %.sroa.0.sroa.6.0.copyload7, 1
  ret { double, double } %.fca.1.insert
}